target datalayout = "e-m:e-p270:32:32-p271:32:32-p272:64:64-i64:64-i128:128-f80:128-n8:16:32:64-S128"
target triple = "x86_64-unknown-linux-gnu"

%struct.QTailQLink = type { ptr, ptr }
%struct.CompareState = type { %struct.Object, ptr, ptr, ptr, ptr, %struct.CharBackend, %struct.CharBackend, %struct.CharBackend, %struct.CharBackend, %struct.SocketReadState, %struct.SocketReadState, %struct.SocketReadState, %struct.SendCo, %struct.SendCo, i8, i64, i32, %struct._GQueue, ptr, ptr, ptr, ptr, ptr, i32, %union.anon.0 }
%struct.Object = type { ptr, ptr, ptr, i32, ptr }
%struct.CharBackend = type { ptr, ptr, ptr, ptr, ptr, ptr, i32, i32 }
%struct.SocketReadState = type { i32, i8, i32, i32, i32, [69632 x i8], ptr }
%struct.SendCo = type { ptr, ptr, ptr, %struct._GQueue, i8, i8, i32 }
%struct._GQueue = type { ptr, ptr, i32 }
%union.anon.0 = type { %struct.QTailQLink }

@.str = private unnamed_addr constant [27 x i8] c"../qemu/net/colo-compare.c\00", align 1
@.str.1 = private unnamed_addr constant [13 x i8] c"colo-compare\00", align 1
@.str.4 = private unnamed_addr constant [11 x i8] c"primary_in\00", align 1
@.str.5 = private unnamed_addr constant [13 x i8] c"secondary_in\00", align 1
@.str.6 = private unnamed_addr constant [7 x i8] c"outdev\00", align 1
@.str.7 = private unnamed_addr constant [9 x i8] c"iothread\00", align 1
@.str.8 = private unnamed_addr constant [11 x i8] c"notify_dev\00", align 1
@.str.9 = private unnamed_addr constant [16 x i8] c"compare_timeout\00", align 1
@.str.10 = private unnamed_addr constant [7 x i8] c"uint64\00", align 1
@.str.11 = private unnamed_addr constant [19 x i8] c"expired_scan_cycle\00", align 1
@.str.12 = private unnamed_addr constant [7 x i8] c"uint32\00", align 1
@.str.13 = private unnamed_addr constant [15 x i8] c"max_queue_size\00", align 1
@.str.14 = private unnamed_addr constant [17 x i8] c"vnet_hdr_support\00", align 1
@__func__.COLO_COMPARE = private unnamed_addr constant [13 x i8] c"COLO_COMPARE\00", align 1

; Function Attrs: nounwind sspstrong uwtable
define internal ptr @COLO_COMPARE(ptr noundef %obj) #0 {
entry:
  %obj.addr = alloca ptr, align 8
  store ptr %obj, ptr %obj.addr, align 8
  %0 = load ptr, ptr %obj.addr, align 8
  %call = call ptr @object_dynamic_cast_assert(ptr noundef %0, ptr noundef @.str.1, ptr noundef @.str, i32 noundef 40, ptr noundef @__func__.COLO_COMPARE)
  ret ptr %call
}

; Function Attrs: nounwind sspstrong uwtable
define internal void @colo_compare_init(ptr noundef %obj) #0 {
entry:
  %obj.addr = alloca ptr, align 8
  %s = alloca ptr, align 8
  store ptr %obj, ptr %obj.addr, align 8
  %0 = load ptr, ptr %obj.addr, align 8
  %call = call ptr @COLO_COMPARE(ptr noundef %0)
  store ptr %call, ptr %s, align 8
  %1 = load ptr, ptr %obj.addr, align 8
  %call1 = call ptr @object_property_add_str(ptr noundef %1, ptr noundef @.str.4, ptr noundef @compare_get_pri_indev, ptr noundef @compare_set_pri_indev)
  %2 = load ptr, ptr %obj.addr, align 8
  %call2 = call ptr @object_property_add_str(ptr noundef %2, ptr noundef @.str.5, ptr noundef @compare_get_sec_indev, ptr noundef @compare_set_sec_indev)
  %3 = load ptr, ptr %obj.addr, align 8
  %call3 = call ptr @object_property_add_str(ptr noundef %3, ptr noundef @.str.6, ptr noundef @compare_get_outdev, ptr noundef @compare_set_outdev)
  %4 = load ptr, ptr %obj.addr, align 8
  %5 = load ptr, ptr %s, align 8
  %iothread = getelementptr inbounds %struct.CompareState, ptr %5, i32 0, i32 19
  %call4 = call ptr @object_property_add_link(ptr noundef %4, ptr noundef @.str.7, ptr noundef @.str.7, ptr noundef %iothread, ptr noundef @object_property_allow_set_link, i32 noundef 1)
  %6 = load ptr, ptr %obj.addr, align 8
  %call5 = call ptr @object_property_add_str(ptr noundef %6, ptr noundef @.str.8, ptr noundef @compare_get_notify_dev, ptr noundef @compare_set_notify_dev)
  %7 = load ptr, ptr %obj.addr, align 8
  %call6 = call ptr @object_property_add(ptr noundef %7, ptr noundef @.str.9, ptr noundef @.str.10, ptr noundef @compare_get_timeout, ptr noundef @compare_set_timeout, ptr noundef null, ptr noundef null)
  %8 = load ptr, ptr %obj.addr, align 8
  %call7 = call ptr @object_property_add(ptr noundef %8, ptr noundef @.str.11, ptr noundef @.str.12, ptr noundef @compare_get_expired_scan_cycle, ptr noundef @compare_set_expired_scan_cycle, ptr noundef null, ptr noundef null)
  %9 = load ptr, ptr %obj.addr, align 8
  %call8 = call ptr @object_property_add(ptr noundef %9, ptr noundef @.str.13, ptr noundef @.str.12, ptr noundef @get_max_queue_size, ptr noundef @set_max_queue_size, ptr noundef null, ptr noundef null)
  %10 = load ptr, ptr %s, align 8
  %vnet_hdr = getelementptr inbounds %struct.CompareState, ptr %10, i32 0, i32 14
  store i8 0, ptr %vnet_hdr, align 8
  %11 = load ptr, ptr %obj.addr, align 8
  %call9 = call ptr @object_property_add_bool(ptr noundef %11, ptr noundef @.str.14, ptr noundef @compare_get_vnet_hdr, ptr noundef @compare_set_vnet_hdr)
  ret void
}