; Function Attrs: nounwind sspstrong uwtable
define internal void @colo_compare_init(ptr noundef %obj) #0 {
entry:
  %call.i = tail call ptr @object_dynamic_cast_assert(ptr noundef %obj, ptr noundef nonnull @.str.1, ptr noundef nonnull @.str, i32 noundef 40, ptr noundef nonnull @__func__.COLO_COMPARE) #16
  %call1 = tail call ptr @object_property_add_str(ptr noundef %obj, ptr noundef nonnull @.str.4, ptr noundef nonnull @compare_get_pri_indev, ptr noundef nonnull @compare_set_pri_indev) #16
  %call2 = tail call ptr @object_property_add_str(ptr noundef %obj, ptr noundef nonnull @.str.5, ptr noundef nonnull @compare_get_sec_indev, ptr noundef nonnull @compare_set_sec_indev) #16
  %call3 = tail call ptr @object_property_add_str(ptr noundef %obj, ptr noundef nonnull @.str.6, ptr noundef nonnull @compare_get_outdev, ptr noundef nonnull @compare_set_outdev) #16
  %iothread = getelementptr inbounds nuw i8, ptr %call.i, i64 209456
  %call4 = tail call ptr @object_property_add_link(ptr noundef %obj, ptr noundef nonnull @.str.7, ptr noundef nonnull @.str.7, ptr noundef nonnull %iothread, ptr noundef nonnull @object_property_allow_set_link, i32 noundef 1) #16
  %call5 = tail call ptr @object_property_add_str(ptr noundef %obj, ptr noundef nonnull @.str.8, ptr noundef nonnull @compare_get_notify_dev, ptr noundef nonnull @compare_set_notify_dev) #16
  %call6 = tail call ptr @object_property_add(ptr noundef %obj, ptr noundef nonnull @.str.9, ptr noundef nonnull @.str.10, ptr noundef nonnull @compare_get_timeout, ptr noundef nonnull @compare_set_timeout, ptr noundef null, ptr noundef null) #16
  %call7 = tail call ptr @object_property_add(ptr noundef %obj, ptr noundef nonnull @.str.11, ptr noundef nonnull @.str.12, ptr noundef nonnull @compare_get_expired_scan_cycle, ptr noundef nonnull @compare_set_expired_scan_cycle, ptr noundef null, ptr noundef null) #16
  %call8 = tail call ptr @object_property_add(ptr noundef %obj, ptr noundef nonnull @.str.13, ptr noundef nonnull @.str.12, ptr noundef nonnull @get_max_queue_size, ptr noundef nonnull @set_max_queue_size, ptr noundef null, ptr noundef null) #16
  %vnet_hdr = getelementptr inbounds nuw i8, ptr %call.i, i64 209400
  store i8 0, ptr %vnet_hdr, align 8
  %call9 = tail call ptr @object_property_add_bool(ptr noundef %obj, ptr noundef nonnull @.str.14, ptr noundef nonnull @compare_get_vnet_hdr, ptr noundef nonnull @compare_set_vnet_hdr) #16
  ret void
}